; Function Attrs: null_pointer_is_valid sspstrong uwtable
define internal i32 @mapi_dissect_EcDoRpcExt2_response(ptr noundef %0, i32 noundef %1, ptr noundef %2, ptr noundef %3, ptr noundef initializes((72, 80)) %4, ptr noundef %5) #0 {
  %7 = alloca i32, align 4
  call void @llvm.lifetime.start.p0(i64 4, ptr nonnull %7) #6
  %8 = getelementptr inbounds nuw i8, ptr %4, i64 72
  store ptr @.str.6378, ptr %8, align 8
  %9 = load i32, ptr @hf_mapi_mapi_EcDoRpcExt2_pcxh, align 4
  %10 = tail call i32 @dissect_ndr_toplevel_pointer(ptr noundef %0, i32 noundef %1, ptr noundef %2, ptr noundef %3, ptr noundef %4, ptr noundef %5, ptr noundef nonnull @mapi_dissect_element_EcDoRpcExt2_pcxh_, i32 noundef 1, ptr noundef nonnull @.str.6399, i32 noundef %9)
  %11 = tail call i32 @dissect_deferred_pointers(ptr noundef %2, ptr noundef %0, i32 noundef %10, ptr noundef %4, ptr noundef %5)
  %12 = load i32, ptr @hf_mapi_mapi_EcDoRpcExt2_pulFlags, align 4
  %13 = tail call i32 @dissect_ndr_toplevel_pointer(ptr noundef %0, i32 noundef %11, ptr noundef %2, ptr noundef %3, ptr noundef %4, ptr noundef %5, ptr noundef nonnull @mapi_dissect_element_EcDoRpcExt2_pulFlags_, i32 noundef 1, ptr noundef nonnull @.str.6410, i32 noundef %12)
  %14 = tail call i32 @dissect_deferred_pointers(ptr noundef %2, ptr noundef %0, i32 noundef %13, ptr noundef %4, ptr noundef %5)
  %15 = load i32, ptr @hf_mapi_mapi_EcDoRpcExt2_rgbOut, align 4
  %16 = tail call i32 @dissect_ndr_toplevel_pointer(ptr noundef %0, i32 noundef %14, ptr noundef %2, ptr noundef %3, ptr noundef %4, ptr noundef %5, ptr noundef nonnull @mapi_dissect_element_EcDoRpcExt2_rgbOut_, i32 noundef 1, ptr noundef nonnull @.str.6414, i32 noundef %15)
  %17 = tail call i32 @dissect_deferred_pointers(ptr noundef %2, ptr noundef %0, i32 noundef %16, ptr noundef %4, ptr noundef %5)
  %18 = load i32, ptr @hf_mapi_mapi_EcDoRpcExt2_pcbOut, align 4
  %19 = tail call i32 @dissect_ndr_toplevel_pointer(ptr noundef %0, i32 noundef %17, ptr noundef %2, ptr noundef %3, ptr noundef %4, ptr noundef %5, ptr noundef nonnull @mapi_dissect_element_EcDoRpcExt2_pcbOut_, i32 noundef 1, ptr noundef nonnull @.str.6412, i32 noundef %18)
  %20 = tail call i32 @dissect_deferred_pointers(ptr noundef %2, ptr noundef %0, i32 noundef %19, ptr noundef %4, ptr noundef %5)
  %21 = load i32, ptr @hf_mapi_mapi_EcDoRpcExt2_rgbAuxOut, align 4
  %22 = tail call i32 @dissect_ndr_toplevel_pointer(ptr noundef %0, i32 noundef %20, ptr noundef %2, ptr noundef %3, ptr noundef %4, ptr noundef %5, ptr noundef nonnull @mapi_dissect_element_EcDoRpcExt2_rgbAuxOut_, i32 noundef 1, ptr noundef nonnull @.str.6418, i32 noundef %21)
  %23 = tail call i32 @dissect_deferred_pointers(ptr noundef %2, ptr noundef %0, i32 noundef %22, ptr noundef %4, ptr noundef %5)
  %24 = load i32, ptr @hf_mapi_mapi_EcDoRpcExt2_pcbAuxOut, align 4
  %25 = tail call i32 @dissect_ndr_toplevel_pointer(ptr noundef %0, i32 noundef %23, ptr noundef %2, ptr noundef %3, ptr noundef %4, ptr noundef %5, ptr noundef nonnull @mapi_dissect_element_EcDoRpcExt2_pcbAuxOut_, i32 noundef 1, ptr noundef nonnull @.str.6417, i32 noundef %24)
  %26 = tail call i32 @dissect_deferred_pointers(ptr noundef %2, ptr noundef %0, i32 noundef %25, ptr noundef %4, ptr noundef %5)
  %27 = load i32, ptr @hf_mapi_mapi_EcDoRpcExt2_pulTransTime, align 4
  %28 = tail call i32 @dissect_ndr_toplevel_pointer(ptr noundef %0, i32 noundef %26, ptr noundef %2, ptr noundef %3, ptr noundef %4, ptr noundef %5, ptr noundef nonnull @mapi_dissect_element_EcDoRpcExt2_pulTransTime_, i32 noundef 1, ptr noundef nonnull @.str.6415, i32 noundef %27)
  %29 = tail call i32 @dissect_deferred_pointers(ptr noundef %2, ptr noundef %0, i32 noundef %28, ptr noundef %4, ptr noundef %5)
  %30 = load i32, ptr @hf_mapi_werror, align 4
  %31 = call i32 @dissect_ndr_uint32(ptr noundef %0, i32 noundef %29, ptr noundef %2, ptr noundef %3, ptr noundef %4, ptr noundef %5, i32 noundef %30, ptr noundef nonnull %7)
  %32 = load i32, ptr %7, align 4
  %.not = icmp eq i32 %32, 0
  br i1 %.not, label %37, label %33

33:                                               ; preds = %6
  %34 = getelementptr inbounds nuw i8, ptr %2, i64 8
  %35 = load ptr, ptr %34, align 8
  %36 = call ptr @val_to_str_ext(i32 noundef %32, ptr noundef nonnull @WERR_errors_ext, ptr noundef nonnull @.str.6389)
  call void (ptr, i32, ptr, ...) @col_append_fstr(ptr noundef %35, i32 noundef 25, ptr noundef nonnull @.str.6388, ptr noundef %36)
  br label %37

37:                                               ; preds = %33, %6
  call void @llvm.lifetime.end.p0(i64 4, ptr nonnull %7) #6
  ret i32 %31
}